target datalayout = "e-m:e-p270:32:32-p271:32:32-p272:64:64-i64:64-i128:128-f80:128-n8:16:32:64-S128"
target triple = "x86_64-pc-linux-gnu"

%struct._value_string_ext = type { ptr, i32, i32, ptr, ptr }
%struct.expert_field = type { i32, i32 }

@hf_r3_commandlength = internal global i32 0, align 4
@hf_r3_command = internal global i32 0, align 4
@hf_r3_upstreamfielderror = internal global i32 0, align 4
@hf_r3_configitem = internal global i32 0, align 4
@r3_configitemnames_ext = internal global %struct._value_string_ext { ptr @_try_val_to_str_ext_init, i32 0, i32 157, ptr @r3_configitemnames, ptr @.str.1385 }, align 8
@hf_r3_configitemlength = internal global i32 0, align 4
@hf_r3_configitemdata = internal global i32 0, align 4
@hf_r3_configitemdata_bool = internal global i32 0, align 4
@hf_r3_configitemdata_8 = internal global i32 0, align 4
@hf_r3_configitemdata_16 = internal global i32 0, align 4
@hf_r3_configitemdata_32 = internal global i32 0, align 4
@hf_r3_configitemdata_string = internal global i32 0, align 4
@ett_r3upstreamfield = internal global i32 0, align 4
@ei_r3_malformed_length = internal global %struct.expert_field zeroinitializer, align 4
@.str.1877 = private unnamed_addr constant [19 x i8] c"Unknown Field Type\00", align 1
@.str.2024 = private unnamed_addr constant [29 x i8] c"[Unknown Configuration Item]\00", align 1
@.str.2025 = private unnamed_addr constant [22 x i8] c"Config Field: %s (%u)\00", align 1
@.str.2026 = private unnamed_addr constant [20 x i8] c"Invalid item length\00", align 1

; Function Attrs: null_pointer_is_valid sspstrong uwtable
define internal void @dissect_r3_cmd_setconfig(ptr noundef %0, i32 noundef %1, i32 noundef %2, ptr noundef %3, ptr noundef %4) #0 {
  %6 = alloca ptr, align 8
  %7 = alloca i32, align 4
  %8 = alloca i32, align 4
  %9 = alloca ptr, align 8
  %10 = alloca ptr, align 8
  %11 = alloca i32, align 4
  %12 = alloca ptr, align 8
  %13 = alloca i32, align 4
  %14 = alloca i32, align 4
  %15 = alloca ptr, align 8
  %16 = alloca ptr, align 8
  %17 = alloca ptr, align 8
  %18 = alloca i8, align 1
  %19 = alloca i8, align 1
  store ptr %0, ptr %6, align 8
  store i32 %1, ptr %7, align 4
  store i32 %2, ptr %8, align 4
  store ptr %3, ptr %9, align 8
  store ptr %4, ptr %10, align 8
  call void @llvm.lifetime.start.p0(i64 4, ptr %11) #5
  call void @llvm.lifetime.start.p0(i64 8, ptr %12) #5
  call void @llvm.lifetime.start.p0(i64 4, ptr %13) #5
  store i32 0, ptr %13, align 4
  %20 = load ptr, ptr %10, align 8
  %21 = icmp ne ptr %20, null
  br i1 %21, label %23, label %22

22:                                               ; preds = %5
  store i32 1, ptr %14, align 4
  br label %181

23:                                               ; preds = %5
  %24 = load ptr, ptr %6, align 8
  %25 = load i32, ptr %7, align 4
  %26 = add i32 %25, 0
  %27 = call zeroext i8 @tvb_get_uint8(ptr noundef %24, i32 noundef %26)
  %28 = zext i8 %27 to i32
  store i32 %28, ptr %11, align 4
  %29 = load ptr, ptr %6, align 8
  %30 = load i32, ptr %7, align 4
  %31 = add i32 %30, 2
  %32 = load i32, ptr %11, align 4
  %33 = sub i32 %32, 2
  %34 = call ptr @tvb_new_subset_length(ptr noundef %29, i32 noundef %31, i32 noundef %33)
  store ptr %34, ptr %12, align 8
  %35 = load ptr, ptr %10, align 8
  %36 = load i32, ptr @hf_r3_commandlength, align 4
  %37 = load ptr, ptr %6, align 8
  %38 = load i32, ptr %7, align 4
  %39 = add i32 %38, 0
  %40 = call ptr @proto_tree_add_item(ptr noundef %35, i32 noundef %36, ptr noundef %37, i32 noundef %39, i32 noundef 1, i32 noundef -2147483648)
  %41 = load ptr, ptr %10, align 8
  %42 = load i32, ptr @hf_r3_command, align 4
  %43 = load ptr, ptr %6, align 8
  %44 = load i32, ptr %7, align 4
  %45 = add i32 %44, 1
  %46 = call ptr @proto_tree_add_item(ptr noundef %41, i32 noundef %42, ptr noundef %43, i32 noundef %45, i32 noundef 1, i32 noundef -2147483648)
  br label %47

47:                                               ; preds = %179, %23
  %48 = load i32, ptr %13, align 4
  %49 = load i32, ptr %11, align 4
  %50 = sub i32 %49, 2
  %51 = icmp ult i32 %48, %50
  br i1 %51, label %52, label %180

52:                                               ; preds = %47
  call void @llvm.lifetime.start.p0(i64 8, ptr %15) #5
  call void @llvm.lifetime.start.p0(i64 8, ptr %16) #5
  call void @llvm.lifetime.start.p0(i64 8, ptr %17) #5
  call void @llvm.lifetime.start.p0(i64 1, ptr %18) #5
  call void @llvm.lifetime.start.p0(i64 1, ptr %19) #5
  %53 = load ptr, ptr %12, align 8
  %54 = load i32, ptr %13, align 4
  %55 = add i32 %54, 1
  %56 = call zeroext i8 @tvb_get_uint8(ptr noundef %53, i32 noundef %55)
  store i8 %56, ptr %18, align 1
  %57 = load i8, ptr %18, align 1
  %58 = zext i8 %57 to i32
  %59 = call ptr @val_to_str_ext_const(i32 noundef %58, ptr noundef @r3_configitemnames_ext, ptr noundef @.str.2024)
  store ptr %59, ptr %17, align 8
  %60 = load ptr, ptr %12, align 8
  %61 = load i32, ptr %13, align 4
  %62 = add i32 %61, 0
  %63 = call zeroext i8 @tvb_get_uint8(ptr noundef %60, i32 noundef %62)
  store i8 %63, ptr %19, align 1
  %64 = load ptr, ptr %10, align 8
  %65 = load ptr, ptr %12, align 8
  %66 = load i32, ptr %13, align 4
  %67 = add i32 %66, 0
  %68 = load i8, ptr %19, align 1
  %69 = zext i8 %68 to i32
  %70 = load i32, ptr @ett_r3upstreamfield, align 4
  %71 = load ptr, ptr %17, align 8
  %72 = load i8, ptr %18, align 1
  %73 = zext i8 %72 to i32
  %74 = call ptr (ptr, ptr, i32, i32, i32, ptr, ptr, ...) @proto_tree_add_subtree_format(ptr noundef %64, ptr noundef %65, i32 noundef %67, i32 noundef %69, i32 noundef %70, ptr noundef null, ptr noundef @.str.2025, ptr noundef %71, i32 noundef %73)
  store ptr %74, ptr %16, align 8
  %75 = load ptr, ptr %16, align 8
  %76 = load i32, ptr @hf_r3_configitemlength, align 4
  %77 = load ptr, ptr %12, align 8
  %78 = load i32, ptr %13, align 4
  %79 = add i32 %78, 0
  %80 = call ptr @proto_tree_add_item(ptr noundef %75, i32 noundef %76, ptr noundef %77, i32 noundef %79, i32 noundef 1, i32 noundef -2147483648)
  store ptr %80, ptr %15, align 8
  %81 = load ptr, ptr %16, align 8
  %82 = load i32, ptr @hf_r3_configitem, align 4
  %83 = load ptr, ptr %12, align 8
  %84 = load i32, ptr %13, align 4
  %85 = add i32 %84, 1
  %86 = call ptr @proto_tree_add_item(ptr noundef %81, i32 noundef %82, ptr noundef %83, i32 noundef %85, i32 noundef 1, i32 noundef -2147483648)
  %87 = load i8, ptr %19, align 1
  %88 = zext i8 %87 to i32
  %89 = icmp eq i32 %88, 0
  br i1 %89, label %90, label %94

90:                                               ; preds = %52
  %91 = load ptr, ptr %9, align 8
  %92 = load ptr, ptr %15, align 8
  %93 = call ptr (ptr, ptr, ptr, ptr, ...) @expert_add_info_format(ptr noundef %91, ptr noundef %92, ptr noundef @ei_r3_malformed_length, ptr noundef @.str.2026)
  store i32 1, ptr %14, align 4
  br label %177

94:                                               ; preds = %52
  %95 = load i8, ptr %18, align 1
  %96 = zext i8 %95 to i64
  %97 = icmp ult i64 %96, 157
  br i1 %97, label %98, label %162

98:                                               ; preds = %94
  %99 = load i8, ptr %18, align 1
  %100 = zext i8 %99 to i64
  %101 = getelementptr [157 x i32], ptr @configMap, i64 0, i64 %100
  %102 = load i32, ptr %101, align 4
  switch i32 %102, label %151 [
    i32 0, label %103
    i32 1, label %113
    i32 2, label %120
    i32 3, label %127
    i32 4, label %134
    i32 5, label %141
  ]

103:                                              ; preds = %98
  %104 = load ptr, ptr %16, align 8
  %105 = load i32, ptr @hf_r3_configitemdata, align 4
  %106 = load ptr, ptr %12, align 8
  %107 = load i32, ptr %13, align 4
  %108 = add i32 %107, 2
  %109 = load i8, ptr %19, align 1
  %110 = zext i8 %109 to i32
  %111 = sub i32 %110, 3
  %112 = call ptr @proto_tree_add_item(ptr noundef %104, i32 noundef %105, ptr noundef %106, i32 noundef %108, i32 noundef %111, i32 noundef 0)
  br label %161

113:                                              ; preds = %98
  %114 = load ptr, ptr %16, align 8
  %115 = load i32, ptr @hf_r3_configitemdata_bool, align 4
  %116 = load ptr, ptr %12, align 8
  %117 = load i32, ptr %13, align 4
  %118 = add i32 %117, 2
  %119 = call ptr @proto_tree_add_item(ptr noundef %114, i32 noundef %115, ptr noundef %116, i32 noundef %118, i32 noundef 1, i32 noundef -2147483648)
  br label %161

120:                                              ; preds = %98
  %121 = load ptr, ptr %16, align 8
  %122 = load i32, ptr @hf_r3_configitemdata_8, align 4
  %123 = load ptr, ptr %12, align 8
  %124 = load i32, ptr %13, align 4
  %125 = add i32 %124, 2
  %126 = call ptr @proto_tree_add_item(ptr noundef %121, i32 noundef %122, ptr noundef %123, i32 noundef %125, i32 noundef 1, i32 noundef -2147483648)
  br label %161

127:                                              ; preds = %98
  %128 = load ptr, ptr %16, align 8
  %129 = load i32, ptr @hf_r3_configitemdata_16, align 4
  %130 = load ptr, ptr %12, align 8
  %131 = load i32, ptr %13, align 4
  %132 = add i32 %131, 2
  %133 = call ptr @proto_tree_add_item(ptr noundef %128, i32 noundef %129, ptr noundef %130, i32 noundef %132, i32 noundef 2, i32 noundef -2147483648)
  br label %161

134:                                              ; preds = %98
  %135 = load ptr, ptr %16, align 8
  %136 = load i32, ptr @hf_r3_configitemdata_32, align 4
  %137 = load ptr, ptr %12, align 8
  %138 = load i32, ptr %13, align 4
  %139 = add i32 %138, 2
  %140 = call ptr @proto_tree_add_item(ptr noundef %135, i32 noundef %136, ptr noundef %137, i32 noundef %139, i32 noundef 4, i32 noundef -2147483648)
  br label %161

141:                                              ; preds = %98
  %142 = load ptr, ptr %16, align 8
  %143 = load i32, ptr @hf_r3_configitemdata_string, align 4
  %144 = load ptr, ptr %12, align 8
  %145 = load i32, ptr %13, align 4
  %146 = add i32 %145, 2
  %147 = load i8, ptr %19, align 1
  %148 = zext i8 %147 to i32
  %149 = sub i32 %148, 2
  %150 = call ptr @proto_tree_add_item(ptr noundef %142, i32 noundef %143, ptr noundef %144, i32 noundef %146, i32 noundef %149, i32 noundef 0)
  br label %161

151:                                              ; preds = %98
  %152 = load ptr, ptr %16, align 8
  %153 = load i32, ptr @hf_r3_upstreamfielderror, align 4
  %154 = load ptr, ptr %12, align 8
  %155 = load i32, ptr %13, align 4
  %156 = add i32 %155, 2
  %157 = load i8, ptr %19, align 1
  %158 = zext i8 %157 to i32
  %159 = sub i32 %158, 2
  %160 = call ptr (ptr, i32, ptr, i32, i32, ptr, ...) @proto_tree_add_none_format(ptr noundef %152, i32 noundef %153, ptr noundef %154, i32 noundef %156, i32 noundef %159, ptr noundef @.str.1877)
  br label %161

161:                                              ; preds = %151, %141, %134, %127, %120, %113, %103
  br label %172

162:                                              ; preds = %94
  %163 = load ptr, ptr %16, align 8
  %164 = load i32, ptr @hf_r3_upstreamfielderror, align 4
  %165 = load ptr, ptr %12, align 8
  %166 = load i32, ptr %13, align 4
  %167 = add i32 %166, 2
  %168 = load i8, ptr %19, align 1
  %169 = zext i8 %168 to i32
  %170 = sub i32 %169, 2
  %171 = call ptr (ptr, i32, ptr, i32, i32, ptr, ...) @proto_tree_add_none_format(ptr noundef %163, i32 noundef %164, ptr noundef %165, i32 noundef %167, i32 noundef %170, ptr noundef @.str.1877)
  br label %172

172:                                              ; preds = %162, %161
  %173 = load i8, ptr %19, align 1
  %174 = zext i8 %173 to i32
  %175 = load i32, ptr %13, align 4
  %176 = add i32 %175, %174
  store i32 %176, ptr %13, align 4
  store i32 0, ptr %14, align 4
  br label %177

177:                                              ; preds = %172, %90
  call void @llvm.lifetime.end.p0(i64 1, ptr %19) #5
  call void @llvm.lifetime.end.p0(i64 1, ptr %18) #5
  call void @llvm.lifetime.end.p0(i64 8, ptr %17) #5
  call void @llvm.lifetime.end.p0(i64 8, ptr %16) #5
  call void @llvm.lifetime.end.p0(i64 8, ptr %15) #5
  %178 = load i32, ptr %14, align 4
  switch i32 %178, label %181 [
    i32 0, label %179
  ]

179:                                              ; preds = %177
  br label %47, !llvm.loop !8

180:                                              ; preds = %47
  store i32 0, ptr %14, align 4
  br label %181

181:                                              ; preds = %180, %177, %22
  call void @llvm.lifetime.end.p0(i64 4, ptr %13) #5
  call void @llvm.lifetime.end.p0(i64 8, ptr %12) #5
  call void @llvm.lifetime.end.p0(i64 4, ptr %11) #5
  %182 = load i32, ptr %14, align 4
  switch i32 %182, label %184 [
    i32 0, label %183
    i32 1, label %183
  ]

183:                                              ; preds = %181, %181
  ret void

184:                                              ; preds = %181
  unreachable
}