; Function Attrs: null_pointer_is_valid sspstrong uwtable
define internal void @dissect_r3_cmd_setconfig(ptr noundef %0, i32 noundef %1, i32 %2, ptr noundef %3, ptr noundef %4) #0 {
  %.not = icmp eq ptr %4, null
  br i1 %.not, label %.loopexit, label %6

6:                                                ; preds = %5
  %7 = tail call zeroext i8 @tvb_get_uint8(ptr noundef %0, i32 noundef %1)
  %8 = zext i8 %7 to i32
  %9 = add i32 %1, 2
  %10 = add nsw i32 %8, -2
  %11 = tail call ptr @tvb_new_subset_length(ptr noundef %0, i32 noundef %9, i32 noundef %10)
  %12 = load i32, ptr @hf_r3_commandlength, align 4
  %13 = tail call ptr @proto_tree_add_item(ptr noundef nonnull %4, i32 noundef %12, ptr noundef %0, i32 noundef %1, i32 noundef 1, i32 noundef -2147483648)
  %14 = load i32, ptr @hf_r3_command, align 4
  %15 = add i32 %1, 1
  %16 = tail call ptr @proto_tree_add_item(ptr noundef nonnull %4, i32 noundef %14, ptr noundef %0, i32 noundef %15, i32 noundef 1, i32 noundef -2147483648)
  %.not73 = icmp eq i32 %10, 0
  br i1 %.not73, label %.loopexit, label %.lr.ph

.lr.ph:                                           ; preds = %6, %66
  %.072 = phi i32 [ %67, %66 ], [ 0, %6 ]
  %17 = add nuw i32 %.072, 1
  %18 = tail call zeroext i8 @tvb_get_uint8(ptr noundef %11, i32 noundef %17)
  %19 = zext i8 %18 to i32
  %20 = tail call ptr @val_to_str_ext_const(i32 noundef %19, ptr noundef nonnull @r3_configitemnames_ext, ptr noundef nonnull @.str.2024)
  %21 = tail call zeroext i8 @tvb_get_uint8(ptr noundef %11, i32 noundef %.072)
  %22 = zext i8 %21 to i32
  %23 = load i32, ptr @ett_r3upstreamfield, align 4
  %24 = tail call ptr (ptr, ptr, i32, i32, i32, ptr, ptr, ...) @proto_tree_add_subtree_format(ptr noundef nonnull %4, ptr noundef %11, i32 noundef %.072, i32 noundef %22, i32 noundef %23, ptr noundef null, ptr noundef nonnull @.str.2025, ptr noundef %20, i32 noundef %19)
  %25 = load i32, ptr @hf_r3_configitemlength, align 4
  %26 = tail call ptr @proto_tree_add_item(ptr noundef %24, i32 noundef %25, ptr noundef %11, i32 noundef %.072, i32 noundef 1, i32 noundef -2147483648)
  %27 = load i32, ptr @hf_r3_configitem, align 4
  %28 = tail call ptr @proto_tree_add_item(ptr noundef %24, i32 noundef %27, ptr noundef %11, i32 noundef %17, i32 noundef 1, i32 noundef -2147483648)
  %.not70 = icmp eq i8 %21, 0
  br i1 %.not70, label %.thread, label %30

.thread:                                          ; preds = %.lr.ph
  %29 = tail call ptr (ptr, ptr, ptr, ptr, ...) @expert_add_info_format(ptr noundef %3, ptr noundef %26, ptr noundef nonnull @ei_r3_malformed_length, ptr noundef nonnull @.str.2026)
  br label %.loopexit

30:                                               ; preds = %.lr.ph
  %31 = icmp ult i8 %18, -99
  br i1 %31, label %32, label %61

32:                                               ; preds = %30
  %33 = zext i8 %18 to i64
  %34 = getelementptr [157 x i32], ptr @configMap, i64 0, i64 %33
  %35 = load i32, ptr %34, align 4
  %36 = add i32 %.072, 2
  switch i32 %35, label %57 [
    i32 0, label %37
    i32 1, label %41
    i32 2, label %44
    i32 3, label %47
    i32 4, label %50
    i32 5, label %53
  ]

37:                                               ; preds = %32
  %38 = load i32, ptr @hf_r3_configitemdata, align 4
  %39 = add nsw i32 %22, -3
  %40 = tail call ptr @proto_tree_add_item(ptr noundef %24, i32 noundef %38, ptr noundef %11, i32 noundef %36, i32 noundef %39, i32 noundef 0)
  br label %66

41:                                               ; preds = %32
  %42 = load i32, ptr @hf_r3_configitemdata_bool, align 4
  %43 = tail call ptr @proto_tree_add_item(ptr noundef %24, i32 noundef %42, ptr noundef %11, i32 noundef %36, i32 noundef 1, i32 noundef -2147483648)
  br label %66

44:                                               ; preds = %32
  %45 = load i32, ptr @hf_r3_configitemdata_8, align 4
  %46 = tail call ptr @proto_tree_add_item(ptr noundef %24, i32 noundef %45, ptr noundef %11, i32 noundef %36, i32 noundef 1, i32 noundef -2147483648)
  br label %66

47:                                               ; preds = %32
  %48 = load i32, ptr @hf_r3_configitemdata_16, align 4
  %49 = tail call ptr @proto_tree_add_item(ptr noundef %24, i32 noundef %48, ptr noundef %11, i32 noundef %36, i32 noundef 2, i32 noundef -2147483648)
  br label %66

50:                                               ; preds = %32
  %51 = load i32, ptr @hf_r3_configitemdata_32, align 4
  %52 = tail call ptr @proto_tree_add_item(ptr noundef %24, i32 noundef %51, ptr noundef %11, i32 noundef %36, i32 noundef 4, i32 noundef -2147483648)
  br label %66

53:                                               ; preds = %32
  %54 = load i32, ptr @hf_r3_configitemdata_string, align 4
  %55 = add nsw i32 %22, -2
  %56 = tail call ptr @proto_tree_add_item(ptr noundef %24, i32 noundef %54, ptr noundef %11, i32 noundef %36, i32 noundef %55, i32 noundef 0)
  br label %66

57:                                               ; preds = %32
  %58 = load i32, ptr @hf_r3_upstreamfielderror, align 4
  %59 = add nsw i32 %22, -2
  %60 = tail call ptr (ptr, i32, ptr, i32, i32, ptr, ...) @proto_tree_add_none_format(ptr noundef %24, i32 noundef %58, ptr noundef %11, i32 noundef %36, i32 noundef %59, ptr noundef nonnull @.str.1877)
  br label %66

61:                                               ; preds = %30
  %62 = load i32, ptr @hf_r3_upstreamfielderror, align 4
  %63 = add i32 %.072, 2
  %64 = add nsw i32 %22, -2
  %65 = tail call ptr (ptr, i32, ptr, i32, i32, ptr, ...) @proto_tree_add_none_format(ptr noundef %24, i32 noundef %62, ptr noundef %11, i32 noundef %63, i32 noundef %64, ptr noundef nonnull @.str.1877)
  br label %66

66:                                               ; preds = %61, %57, %53, %50, %47, %44, %41, %37
  %67 = add i32 %.072, %22
  %68 = icmp ult i32 %67, %10
  br i1 %68, label %.lr.ph, label %.loopexit, !llvm.loop !8

.loopexit:                                        ; preds = %66, %6, %.thread, %5
  ret void
}